target datalayout = "e-m:e-p270:32:32-p271:32:32-p272:64:64-i64:64-i128:128-f80:128-n8:16:32:64-S128"
target triple = "x86_64-pc-linux-gnu"

%"class.clang::DeclContext" = type { ptr, %union.anon.343, ptr, ptr }
%union.anon.343 = type { %"class.clang::DeclContext::RecordDeclBitfields" }
%"class.clang::DeclContext::RecordDeclBitfields" = type { i64 }

; Function Attrs: mustprogress nounwind uwtable
define linkonce_odr hidden void @_ZNK5clang14ObjCMethodDecl19setHasRedeclarationEb(ptr noundef nonnull align 8 dereferenceable(136) %0, i1 noundef zeroext %1) #0 comdat align 2 {
  %3 = alloca ptr, align 8
  %4 = alloca i8, align 1
  store ptr %0, ptr %3, align 8
  %5 = zext i1 %1 to i8
  store i8 %5, ptr %4, align 1
  %6 = load ptr, ptr %3, align 8
  %7 = load i8, ptr %4, align 1
  %8 = trunc i8 %7 to i1
  %9 = zext i1 %8 to i64
  %10 = getelementptr inbounds i8, ptr %6, i64 48
  %11 = getelementptr inbounds nuw %"class.clang::DeclContext", ptr %10, i32 0, i32 1
  %12 = trunc i64 %9 to i24
  %13 = load i24, ptr %11, align 8
  %14 = and i24 %12, 1
  %15 = shl i24 %14, 23
  %16 = and i24 %13, 8388607
  %17 = or i24 %16, %15
  store i24 %17, ptr %11, align 8
  ret void
}

; Function Attrs: mustprogress nounwind uwtable
define linkonce_odr hidden void @_ZN5clang14ObjCMethodDecl18setIsRedeclarationEb(ptr noundef nonnull align 8 dereferenceable(136) %0, i1 noundef zeroext %1) #0 comdat align 2 {
  %3 = alloca ptr, align 8
  %4 = alloca i8, align 1
  store ptr %0, ptr %3, align 8
  %5 = zext i1 %1 to i8
  store i8 %5, ptr %4, align 1
  %6 = load ptr, ptr %3, align 8
  %7 = load i8, ptr %4, align 1
  %8 = trunc i8 %7 to i1
  %9 = zext i1 %8 to i64
  %10 = getelementptr inbounds i8, ptr %6, i64 48
  %11 = getelementptr inbounds nuw %"class.clang::DeclContext", ptr %10, i32 0, i32 1
  %12 = trunc i64 %9 to i24
  %13 = load i24, ptr %11, align 8
  %14 = and i24 %12, 1
  %15 = shl i24 %14, 22
  %16 = and i24 %13, -4194305
  %17 = or i24 %16, %15
  store i24 %17, ptr %11, align 8
  ret void
}

; Function Attrs: mustprogress nounwind uwtable
define dso_local void @_ZN5clang14ObjCMethodDecl18setAsRedeclarationEPKS0_(ptr noundef nonnull align 8 dereferenceable(136) %0, ptr noundef %1) #0 align 2 {
  %3 = alloca ptr, align 8
  %4 = alloca ptr, align 8
  store ptr %0, ptr %3, align 8
  store ptr %1, ptr %4, align 8
  %5 = load ptr, ptr %3, align 8
  %6 = call noundef nonnull align 8 dereferenceable(23096) ptr @_ZNK5clang4Decl13getASTContextEv(ptr noundef nonnull align 8 dereferenceable(33) %5) #14
  %7 = load ptr, ptr %4, align 8
  call void @_ZN5clang10ASTContext26setObjCMethodRedeclarationEPKNS_14ObjCMethodDeclES3_(ptr noundef nonnull align 8 dereferenceable(23096) %6, ptr noundef %7, ptr noundef %5)
  call void @_ZN5clang14ObjCMethodDecl18setIsRedeclarationEb(ptr noundef nonnull align 8 dereferenceable(136) %5, i1 noundef zeroext true)
  %8 = load ptr, ptr %4, align 8
  call void @_ZNK5clang14ObjCMethodDecl19setHasRedeclarationEb(ptr noundef nonnull align 8 dereferenceable(136) %8, i1 noundef zeroext true)
  ret void
}