; Function Attrs: mustprogress nounwind uwtable
define dso_local void @_ZN5clang14ObjCMethodDecl18setAsRedeclarationEPKS0_(ptr noundef nonnull align 8 dereferenceable(136) %0, ptr noundef %1) local_unnamed_addr #0 align 2 {
  %3 = tail call noundef nonnull align 8 dereferenceable(23096) ptr @_ZNK5clang4Decl13getASTContextEv(ptr noundef nonnull align 8 dereferenceable(33) %0) #24
  tail call void @_ZN5clang10ASTContext26setObjCMethodRedeclarationEPKNS_14ObjCMethodDeclES3_(ptr noundef nonnull align 8 dereferenceable(23096) %3, ptr noundef %1, ptr noundef nonnull %0) #23
  %4 = getelementptr inbounds i8, ptr %0, i64 56
  %5 = load i24, ptr %4, align 8
  %6 = or i24 %5, 4194304
  store i24 %6, ptr %4, align 8
  %7 = getelementptr inbounds i8, ptr %1, i64 56
  %8 = load i24, ptr %7, align 8
  %9 = or i24 %8, -8388608
  store i24 %9, ptr %7, align 8
  ret void
}